target datalayout = "e-m:e-p270:32:32-p271:32:32-p272:64:64-i64:64-i128:128-f80:128-n8:16:32:64-S128"
target triple = "x86_64-pc-linux-gnu"

%struct.mbedtls_nist_kw_context = type { %struct.mbedtls_cipher_context_t }
%struct.mbedtls_cipher_context_t = type { ptr, i32, i32, ptr, ptr, [16 x i8], i64, [16 x i8], i64, ptr, ptr }

@NIST_KW_ICV1 = internal constant [8 x i8] c"\A6\A6\A6\A6\A6\A6\A6\A6", align 1
@NIST_KW_ICV2 = internal constant [4 x i8] c"\A6YY\A6", align 1

; Function Attrs: inlinehint nounwind uwtable
define internal i64 @mbedtls_ct_if(i64 noundef %0, i64 noundef %1, i64 noundef %2) #4 {
  %4 = alloca i64, align 8
  %5 = alloca i64, align 8
  %6 = alloca i64, align 8
  store i64 %0, ptr %4, align 8, !tbaa !13
  store i64 %1, ptr %5, align 8, !tbaa !13
  store i64 %2, ptr %6, align 8, !tbaa !13
  %7 = load i64, ptr %4, align 8, !tbaa !13
  %8 = load i64, ptr %5, align 8, !tbaa !13
  %9 = load i64, ptr %6, align 8, !tbaa !13
  %10 = call { i64, i64, i64 } asm sideeffect "and  $0, $1                      \0A\09not  $0                              \0A\09and  $0, $2                      \0A\09or   $1, $2                            \0A\09", "=&{di},=&{si},=&{ax},0,1,2,~{dirflag},~{fpsr},~{flags}"(i64 %7, i64 %8, i64 %9) #9, !srcloc !24
  %11 = extractvalue { i64, i64, i64 } %10, 0
  %12 = extractvalue { i64, i64, i64 } %10, 1
  %13 = extractvalue { i64, i64, i64 } %10, 2
  store i64 %11, ptr %4, align 8, !tbaa !13
  store i64 %12, ptr %5, align 8, !tbaa !13
  store i64 %13, ptr %6, align 8, !tbaa !13
  %14 = load i64, ptr %6, align 8, !tbaa !13
  ret i64 %14
}

; Function Attrs: inlinehint nounwind uwtable
define internal i64 @mbedtls_ct_uint_lt(i64 noundef %0, i64 noundef %1) #4 {
  %3 = alloca i64, align 8
  %4 = alloca i64, align 8
  %5 = alloca i64, align 8
  store i64 %0, ptr %3, align 8, !tbaa !13
  store i64 %1, ptr %4, align 8, !tbaa !13
  call void @llvm.lifetime.start.p0(i64 8, ptr %5) #9
  %6 = load i64, ptr %3, align 8, !tbaa !13
  %7 = load i64, ptr %4, align 8, !tbaa !13
  %8 = call { i64, i64, i64 } asm sideeffect "mov $1, $0                                 \0A\09xor $2, $0                                 \0A\09sub $2, $1                                 \0A\09and $0, $2                                 \0A\09not $0                                       \0A\09and $0, $1                                 \0A\09or $2, $1                                  \0A\09sar $$63, $1                                  \0A\09", "=&{ax},=&{di},=&{si},1,2,~{dirflag},~{fpsr},~{flags}"(i64 %6, i64 %7) #9, !srcloc !25
  %9 = extractvalue { i64, i64, i64 } %8, 0
  %10 = extractvalue { i64, i64, i64 } %8, 1
  %11 = extractvalue { i64, i64, i64 } %8, 2
  store i64 %9, ptr %5, align 8, !tbaa !13
  store i64 %10, ptr %3, align 8, !tbaa !13
  store i64 %11, ptr %4, align 8, !tbaa !13
  %12 = load i64, ptr %3, align 8, !tbaa !13
  call void @llvm.lifetime.end.p0(i64 8, ptr %5) #9
  ret i64 %12
}

; Function Attrs: inlinehint nounwind uwtable
define internal i32 @mbedtls_ct_error_if(i64 noundef %0, i32 noundef %1, i32 noundef %2) #4 {
  %4 = alloca i64, align 8
  %5 = alloca i32, align 4
  %6 = alloca i32, align 4
  store i64 %0, ptr %4, align 8, !tbaa !13
  store i32 %1, ptr %5, align 4, !tbaa !7
  store i32 %2, ptr %6, align 4, !tbaa !7
  %7 = load i64, ptr %4, align 8, !tbaa !13
  %8 = load i32, ptr %5, align 4, !tbaa !7
  %9 = sub nsw i32 0, %8
  %10 = sext i32 %9 to i64
  %11 = load i32, ptr %6, align 4, !tbaa !7
  %12 = sub nsw i32 0, %11
  %13 = sext i32 %12 to i64
  %14 = call i64 @mbedtls_ct_if(i64 noundef %7, i64 noundef %10, i64 noundef %13)
  %15 = trunc i64 %14 to i32
  %16 = sub nsw i32 0, %15
  ret i32 %16
}

; Function Attrs: inlinehint nounwind uwtable
define internal i64 @mbedtls_ct_uint_gt(i64 noundef %0, i64 noundef %1) #4 {
  %3 = alloca i64, align 8
  %4 = alloca i64, align 8
  store i64 %0, ptr %3, align 8, !tbaa !13
  store i64 %1, ptr %4, align 8, !tbaa !13
  %5 = load i64, ptr %4, align 8, !tbaa !13
  %6 = load i64, ptr %3, align 8, !tbaa !13
  %7 = call i64 @mbedtls_ct_uint_lt(i64 noundef %5, i64 noundef %6)
  ret i64 %7
}

; Function Attrs: alwaysinline nounwind uwtable
define internal i32 @mbedtls_get_unaligned_uint32(ptr noundef %0) #6 {
  %2 = alloca ptr, align 8
  %3 = alloca i32, align 4
  store ptr %0, ptr %2, align 8, !tbaa !3
  call void @llvm.lifetime.start.p0(i64 4, ptr %3) #9
  %4 = load ptr, ptr %2, align 8, !tbaa !3
  call void @llvm.memcpy.p0.p0.i64(ptr align 4 %3, ptr align 1 %4, i64 4, i1 false)
  %5 = load i32, ptr %3, align 4, !tbaa !7
  call void @llvm.lifetime.end.p0(i64 4, ptr %3) #9
  ret i32 %5
}

; Function Attrs: nounwind uwtable
define hidden i32 @mbedtls_nist_kw_unwrap(ptr noundef %0, i32 noundef %1, ptr noundef %2, i64 noundef %3, ptr noundef %4, ptr noundef %5, i64 noundef %6) #0 {
  %8 = alloca i32, align 4
  %9 = alloca ptr, align 8
  %10 = alloca i32, align 4
  %11 = alloca ptr, align 8
  %12 = alloca i64, align 8
  %13 = alloca ptr, align 8
  %14 = alloca ptr, align 8
  %15 = alloca i64, align 8
  %16 = alloca i32, align 4
  %17 = alloca i64, align 8
  %18 = alloca [8 x i8], align 1
  %19 = alloca i32, align 4
  %20 = alloca i32, align 4
  %21 = alloca i64, align 8
  %22 = alloca i32, align 4
  %23 = alloca [16 x i8], align 16
  %24 = alloca [8 x i8], align 1
  store ptr %0, ptr %9, align 8, !tbaa !3
  store i32 %1, ptr %10, align 4, !tbaa !7
  store ptr %2, ptr %11, align 8, !tbaa !9
  store i64 %3, ptr %12, align 8, !tbaa !13
  store ptr %4, ptr %13, align 8, !tbaa !9
  store ptr %5, ptr %14, align 8, !tbaa !15
  store i64 %6, ptr %15, align 8, !tbaa !13
  call void @llvm.lifetime.start.p0(i64 4, ptr %16) #9
  store i32 0, ptr %16, align 4, !tbaa !7
  call void @llvm.lifetime.start.p0(i64 8, ptr %17) #9
  call void @llvm.lifetime.start.p0(i64 8, ptr %18) #9
  call void @llvm.lifetime.start.p0(i64 4, ptr %19) #9
  %25 = load ptr, ptr %14, align 8, !tbaa !15
  store i64 0, ptr %25, align 8, !tbaa !13
  %26 = load i64, ptr %15, align 8, !tbaa !13
  %27 = load i64, ptr %12, align 8, !tbaa !13
  %28 = sub i64 %27, 8
  %29 = icmp ult i64 %26, %28
  br i1 %29, label %30, label %31

30:                                               ; preds = %7
  store i32 -24832, ptr %8, align 4
  store i32 1, ptr %20, align 4
  br label %179

31:                                               ; preds = %7
  %32 = load i32, ptr %10, align 4, !tbaa !7
  %33 = icmp eq i32 %32, 0
  br i1 %33, label %34, label %64

34:                                               ; preds = %31
  %35 = load i64, ptr %12, align 8, !tbaa !13
  %36 = icmp ult i64 %35, 24
  br i1 %36, label %44, label %37

37:                                               ; preds = %34
  %38 = load i64, ptr %12, align 8, !tbaa !13
  %39 = icmp ugt i64 %38, 144115188075855872
  br i1 %39, label %44, label %40

40:                                               ; preds = %37
  %41 = load i64, ptr %12, align 8, !tbaa !13
  %42 = urem i64 %41, 8
  %43 = icmp ne i64 %42, 0
  br i1 %43, label %44, label %45

44:                                               ; preds = %40, %37, %34
  store i32 -24832, ptr %8, align 4
  store i32 1, ptr %20, align 4
  br label %179

45:                                               ; preds = %40
  %46 = load ptr, ptr %9, align 8, !tbaa !3
  %47 = load ptr, ptr %11, align 8, !tbaa !9
  %48 = load i64, ptr %12, align 8, !tbaa !13
  %49 = udiv i64 %48, 8
  %50 = getelementptr inbounds [8 x i8], ptr %18, i64 0, i64 0
  %51 = load ptr, ptr %13, align 8, !tbaa !9
  %52 = load ptr, ptr %14, align 8, !tbaa !15
  %53 = call i32 @unwrap(ptr noundef %46, ptr noundef %47, i64 noundef %49, ptr noundef %50, ptr noundef %51, ptr noundef %52)
  store i32 %53, ptr %16, align 4, !tbaa !7
  %54 = load i32, ptr %16, align 4, !tbaa !7
  %55 = icmp ne i32 %54, 0
  br i1 %55, label %56, label %57

56:                                               ; preds = %45
  br label %168

57:                                               ; preds = %45
  %58 = getelementptr inbounds [8 x i8], ptr %18, i64 0, i64 0
  %59 = call i32 @mbedtls_ct_memcmp(ptr noundef @NIST_KW_ICV1, ptr noundef %58, i64 noundef 8)
  store i32 %59, ptr %19, align 4, !tbaa !7
  %60 = load i32, ptr %19, align 4, !tbaa !7
  %61 = icmp ne i32 %60, 0
  br i1 %61, label %62, label %63

62:                                               ; preds = %57
  store i32 -25344, ptr %16, align 4, !tbaa !7
  br label %168

63:                                               ; preds = %57
  br label %167

64:                                               ; preds = %31
  %65 = load i32, ptr %10, align 4, !tbaa !7
  %66 = icmp eq i32 %65, 1
  br i1 %66, label %67, label %165

67:                                               ; preds = %64
  call void @llvm.lifetime.start.p0(i64 8, ptr %21) #9
  store i64 0, ptr %21, align 8, !tbaa !13
  call void @llvm.lifetime.start.p0(i64 4, ptr %22) #9
  %68 = load i64, ptr %12, align 8, !tbaa !13
  %69 = icmp ult i64 %68, 16
  br i1 %69, label %77, label %70

70:                                               ; preds = %67
  %71 = load i64, ptr %12, align 8, !tbaa !13
  %72 = icmp ugt i64 %71, 4294967296
  br i1 %72, label %77, label %73

73:                                               ; preds = %70
  %74 = load i64, ptr %12, align 8, !tbaa !13
  %75 = urem i64 %74, 8
  %76 = icmp ne i64 %75, 0
  br i1 %76, label %77, label %78

77:                                               ; preds = %73, %70, %67
  store i32 -24832, ptr %8, align 4
  store i32 1, ptr %20, align 4
  br label %162

78:                                               ; preds = %73
  %79 = load i64, ptr %12, align 8, !tbaa !13
  %80 = icmp eq i64 %79, 16
  br i1 %80, label %81, label %101

81:                                               ; preds = %78
  call void @llvm.lifetime.start.p0(i64 16, ptr %23) #9
  %82 = load ptr, ptr %9, align 8, !tbaa !3
  %83 = getelementptr inbounds nuw %struct.mbedtls_nist_kw_context, ptr %82, i32 0, i32 0
  %84 = load ptr, ptr %11, align 8, !tbaa !9
  %85 = getelementptr inbounds [16 x i8], ptr %23, i64 0, i64 0
  %86 = call i32 @mbedtls_cipher_update(ptr noundef %83, ptr noundef %84, i64 noundef 16, ptr noundef %85, ptr noundef %17)
  store i32 %86, ptr %16, align 4, !tbaa !7
  %87 = load i32, ptr %16, align 4, !tbaa !7
  %88 = icmp ne i32 %87, 0
  br i1 %88, label %89, label %90

89:                                               ; preds = %81
  store i32 2, ptr %20, align 4
  br label %98

90:                                               ; preds = %81
  %91 = getelementptr inbounds [8 x i8], ptr %18, i64 0, i64 0
  %92 = getelementptr inbounds [16 x i8], ptr %23, i64 0, i64 0
  call void @llvm.memcpy.p0.p0.i64(ptr align 1 %91, ptr align 16 %92, i64 8, i1 false)
  %93 = load ptr, ptr %13, align 8, !tbaa !9
  %94 = getelementptr inbounds [16 x i8], ptr %23, i64 0, i64 0
  %95 = getelementptr inbounds i8, ptr %94, i64 8
  call void @llvm.memcpy.p0.p0.i64(ptr align 1 %93, ptr align 1 %95, i64 8, i1 false)
  %96 = getelementptr inbounds [16 x i8], ptr %23, i64 0, i64 0
  call void @mbedtls_platform_zeroize(ptr noundef %96, i64 noundef 16)
  %97 = load ptr, ptr %14, align 8, !tbaa !15
  store i64 8, ptr %97, align 8, !tbaa !13
  store i32 0, ptr %20, align 4
  br label %98

98:                                               ; preds = %89, %90
  call void @llvm.lifetime.end.p0(i64 16, ptr %23) #9
  %99 = load i32, ptr %20, align 4
  switch i32 %99, label %162 [
    i32 0, label %100
  ]

100:                                              ; preds = %98
  br label %114

101:                                              ; preds = %78
  %102 = load ptr, ptr %9, align 8, !tbaa !3
  %103 = load ptr, ptr %11, align 8, !tbaa !9
  %104 = load i64, ptr %12, align 8, !tbaa !13
  %105 = udiv i64 %104, 8
  %106 = getelementptr inbounds [8 x i8], ptr %18, i64 0, i64 0
  %107 = load ptr, ptr %13, align 8, !tbaa !9
  %108 = load ptr, ptr %14, align 8, !tbaa !15
  %109 = call i32 @unwrap(ptr noundef %102, ptr noundef %103, i64 noundef %105, ptr noundef %106, ptr noundef %107, ptr noundef %108)
  store i32 %109, ptr %16, align 4, !tbaa !7
  %110 = load i32, ptr %16, align 4, !tbaa !7
  %111 = icmp ne i32 %110, 0
  br i1 %111, label %112, label %113

112:                                              ; preds = %101
  store i32 2, ptr %20, align 4
  br label %162

113:                                              ; preds = %101
  br label %114

114:                                              ; preds = %113, %100
  %115 = getelementptr inbounds [8 x i8], ptr %18, i64 0, i64 0
  %116 = call i32 @mbedtls_ct_memcmp(ptr noundef @NIST_KW_ICV2, ptr noundef %115, i64 noundef 4)
  store i32 %116, ptr %19, align 4, !tbaa !7
  %117 = load i32, ptr %19, align 4, !tbaa !7
  %118 = icmp ne i32 %117, 0
  br i1 %118, label %119, label %120

119:                                              ; preds = %114
  store i32 -25344, ptr %16, align 4, !tbaa !7
  br label %120

120:                                              ; preds = %119, %114
  %121 = getelementptr inbounds [8 x i8], ptr %18, i64 0, i64 0
  %122 = getelementptr inbounds i8, ptr %121, i64 4
  %123 = call i32 @mbedtls_get_unaligned_uint32(ptr noundef %122)
  %124 = call i32 @llvm.bswap.i32(i32 %123)
  store i32 %124, ptr %22, align 4, !tbaa !7
  %125 = load i64, ptr %12, align 8, !tbaa !13
  %126 = sub i64 %125, 8
  %127 = load i32, ptr %22, align 4, !tbaa !7
  %128 = zext i32 %127 to i64
  %129 = sub i64 %126, %128
  store i64 %129, ptr %21, align 8, !tbaa !13
  %130 = load i64, ptr %21, align 8, !tbaa !13
  %131 = call i64 @mbedtls_ct_uint_gt(i64 noundef %130, i64 noundef 7)
  %132 = load i32, ptr %16, align 4, !tbaa !7
  %133 = call i32 @mbedtls_ct_error_if(i64 noundef %131, i32 noundef -25344, i32 noundef %132)
  store i32 %133, ptr %16, align 4, !tbaa !7
  %134 = load i64, ptr %21, align 8, !tbaa !13
  %135 = and i64 %134, 7
  store i64 %135, ptr %21, align 8, !tbaa !13
  call void @llvm.lifetime.start.p0(i64 8, ptr %24) #9
  call void @llvm.memset.p0.i64(ptr align 1 %24, i8 0, i64 8, i1 false)
  %136 = load ptr, ptr %13, align 8, !tbaa !9
  %137 = load ptr, ptr %14, align 8, !tbaa !15
  %138 = load i64, ptr %137, align 8, !tbaa !13
  %139 = sub i64 %138, 8
  %140 = getelementptr inbounds nuw i8, ptr %136, i64 %139
  %141 = getelementptr inbounds [8 x i8], ptr %24, i64 0, i64 0
  %142 = load i64, ptr %21, align 8, !tbaa !13
  %143 = sub i64 8, %142
  %144 = call i32 @mbedtls_ct_memcmp_partial(ptr noundef %140, ptr noundef %141, i64 noundef 8, i64 noundef %143, i64 noundef 0)
  store i32 %144, ptr %19, align 4, !tbaa !7
  %145 = load i32, ptr %19, align 4, !tbaa !7
  %146 = icmp ne i32 %145, 0
  br i1 %146, label %147, label %148

147:                                              ; preds = %120
  store i32 -25344, ptr %16, align 4, !tbaa !7
  br label %148

148:                                              ; preds = %147, %120
  %149 = load i32, ptr %16, align 4, !tbaa !7
  %150 = icmp ne i32 %149, 0
  br i1 %150, label %151, label %152

151:                                              ; preds = %148
  store i32 2, ptr %20, align 4
  br label %161

152:                                              ; preds = %148
  %153 = load ptr, ptr %13, align 8, !tbaa !9
  %154 = load i32, ptr %22, align 4, !tbaa !7
  %155 = zext i32 %154 to i64
  %156 = getelementptr inbounds nuw i8, ptr %153, i64 %155
  %157 = load i64, ptr %21, align 8, !tbaa !13
  call void @llvm.memset.p0.i64(ptr align 1 %156, i8 0, i64 %157, i1 false)
  %158 = load i32, ptr %22, align 4, !tbaa !7
  %159 = zext i32 %158 to i64
  %160 = load ptr, ptr %14, align 8, !tbaa !15
  store i64 %159, ptr %160, align 8, !tbaa !13
  store i32 0, ptr %20, align 4
  br label %161

161:                                              ; preds = %151, %152
  call void @llvm.lifetime.end.p0(i64 8, ptr %24) #9
  br label %162

162:                                              ; preds = %112, %161, %98, %77
  call void @llvm.lifetime.end.p0(i64 4, ptr %22) #9
  call void @llvm.lifetime.end.p0(i64 8, ptr %21) #9
  %163 = load i32, ptr %20, align 4
  switch i32 %163, label %179 [
    i32 0, label %164
    i32 2, label %168
  ]

164:                                              ; preds = %162
  br label %166

165:                                              ; preds = %64
  store i32 -24704, ptr %16, align 4, !tbaa !7
  br label %168

166:                                              ; preds = %164
  br label %167

167:                                              ; preds = %166, %63
  br label %168

168:                                              ; preds = %167, %162, %165, %62, %56
  %169 = load i32, ptr %16, align 4, !tbaa !7
  %170 = icmp ne i32 %169, 0
  br i1 %170, label %171, label %176

171:                                              ; preds = %168
  %172 = load ptr, ptr %13, align 8, !tbaa !9
  %173 = load ptr, ptr %14, align 8, !tbaa !15
  %174 = load i64, ptr %173, align 8, !tbaa !13
  call void @llvm.memset.p0.i64(ptr align 1 %172, i8 0, i64 %174, i1 false)
  %175 = load ptr, ptr %14, align 8, !tbaa !15
  store i64 0, ptr %175, align 8, !tbaa !13
  br label %176

176:                                              ; preds = %171, %168
  call void @mbedtls_platform_zeroize(ptr noundef %19, i64 noundef 4)
  %177 = getelementptr inbounds [8 x i8], ptr %18, i64 0, i64 0
  call void @mbedtls_platform_zeroize(ptr noundef %177, i64 noundef 8)
  %178 = load i32, ptr %16, align 4, !tbaa !7
  store i32 %178, ptr %8, align 4
  store i32 1, ptr %20, align 4
  br label %179

179:                                              ; preds = %176, %162, %44, %30
  call void @llvm.lifetime.end.p0(i64 4, ptr %19) #9
  call void @llvm.lifetime.end.p0(i64 8, ptr %18) #9
  call void @llvm.lifetime.end.p0(i64 8, ptr %17) #9
  call void @llvm.lifetime.end.p0(i64 4, ptr %16) #9
  %180 = load i32, ptr %8, align 4
  ret i32 %180
}