; Function Attrs: nounwind uwtable
define hidden i32 @mbedtls_nist_kw_unwrap(ptr noundef %0, i32 noundef %1, ptr noundef %2, i64 noundef %3, ptr noundef %4, ptr noundef captures(none) initializes((0, 8)) %5, i64 noundef %6) local_unnamed_addr #2 {
  %8 = alloca i64, align 8
  %9 = alloca [8 x i8], align 8
  %10 = alloca i32, align 4
  %11 = alloca [16 x i8], align 16
  %12 = alloca [8 x i8], align 8
  call void @llvm.lifetime.start.p0(i64 8, ptr nonnull %8) #11
  call void @llvm.lifetime.start.p0(i64 8, ptr nonnull %9) #11
  call void @llvm.lifetime.start.p0(i64 4, ptr nonnull %10) #11
  store i64 0, ptr %5, align 8, !tbaa !3
  %13 = add i64 %3, -8
  %14 = icmp ult i64 %6, %13
  br i1 %14, label %.thread81, label %15

15:                                               ; preds = %7
  switch i32 %1, label %.thread85 [
    i32 0, label %16
    i32 1, label %24
  ]

16:                                               ; preds = %15
  %17 = add i64 %3, -24
  %or.cond = icmp ult i64 %17, 144115188075855849
  %18 = and i64 %3, 7
  %.not70 = icmp eq i64 %18, 0
  %or.cond74 = and i1 %or.cond, %.not70
  br i1 %or.cond74, label %19, label %.thread81

19:                                               ; preds = %16
  %20 = lshr exact i64 %3, 3
  %21 = call fastcc i32 @unwrap(ptr noundef %0, ptr noundef %2, i64 noundef %20, ptr noundef %9, ptr noundef %4, ptr noundef nonnull %5)
  %.not71 = icmp eq i32 %21, 0
  br i1 %.not71, label %22, label %.thread85

22:                                               ; preds = %19
  %23 = call i32 @mbedtls_ct_memcmp(ptr noundef nonnull @NIST_KW_ICV1, ptr noundef nonnull %9, i64 noundef 8) #11
  store i32 %23, ptr %10, align 4, !tbaa !11
  %.not72 = icmp eq i32 %23, 0
  br i1 %.not72, label %.thread90, label %.thread85

24:                                               ; preds = %15
  %25 = add i64 %3, -16
  %or.cond3 = icmp ult i64 %25, 4294967281
  %26 = and i64 %3, 7
  %.not = icmp eq i64 %26, 0
  %or.cond75 = and i1 %or.cond3, %.not
  br i1 %or.cond75, label %27, label %.thread81

27:                                               ; preds = %24
  %28 = icmp eq i64 %3, 16
  br i1 %28, label %29, label %35

29:                                               ; preds = %27
  call void @llvm.lifetime.start.p0(i64 16, ptr nonnull %11) #11
  %30 = call i32 @mbedtls_cipher_update(ptr noundef %0, ptr noundef %2, i64 noundef 16, ptr noundef nonnull %11, ptr noundef nonnull %8) #11
  %.not66 = icmp eq i32 %30, 0
  br i1 %.not66, label %.thread, label %34

.thread:                                          ; preds = %29
  %31 = load i64, ptr %11, align 16
  store i64 %31, ptr %9, align 8
  %32 = getelementptr inbounds nuw i8, ptr %11, i64 8
  %33 = load i64, ptr %32, align 8
  store i64 %33, ptr %4, align 1
  call void @mbedtls_platform_zeroize(ptr noundef nonnull %11, i64 noundef 16) #11
  store i64 8, ptr %5, align 8, !tbaa !3
  call void @llvm.lifetime.end.p0(i64 16, ptr nonnull %11) #11
  br label %38

34:                                               ; preds = %29
  call void @llvm.lifetime.end.p0(i64 16, ptr nonnull %11) #11
  br label %.thread85

35:                                               ; preds = %27
  %36 = lshr exact i64 %3, 3
  %37 = call fastcc i32 @unwrap(ptr noundef %0, ptr noundef %2, i64 noundef %36, ptr noundef %9, ptr noundef %4, ptr noundef nonnull %5)
  %.not65 = icmp eq i32 %37, 0
  br i1 %.not65, label %38, label %.thread85

38:                                               ; preds = %.thread, %35
  %39 = call i32 @mbedtls_ct_memcmp(ptr noundef nonnull @NIST_KW_ICV2, ptr noundef nonnull %9, i64 noundef 4) #11
  %.not67 = icmp eq i32 %39, 0
  %spec.select76.neg = select i1 %.not67, i64 0, i64 25344
  %40 = getelementptr inbounds nuw i8, ptr %9, i64 4
  %.0.copyload.i = load i32, ptr %40, align 4
  %41 = call i32 @llvm.bswap.i32(i32 %.0.copyload.i)
  %42 = zext i32 %41 to i64
  %43 = sub nsw i64 %13, %42
  %44 = call { i64, i64, i64 } asm sideeffect "mov $1, $0                                 \0A\09xor $2, $0                                 \0A\09sub $2, $1                                 \0A\09and $0, $2                                 \0A\09not $0                                       \0A\09and $0, $1                                 \0A\09or $2, $1                                  \0A\09sar $$63, $1                                  \0A\09", "=&{ax},=&{di},=&{si},1,2,~{dirflag},~{fpsr},~{flags}"(i64 7, i64 %43) #11, !srcloc !13
  %45 = extractvalue { i64, i64, i64 } %44, 1
  %46 = call { i64, i64, i64 } asm sideeffect "and  $0, $1                      \0A\09not  $0                              \0A\09and  $0, $2                      \0A\09or   $1, $2                            \0A\09", "=&{di},=&{si},=&{ax},0,1,2,~{dirflag},~{fpsr},~{flags}"(i64 %45, i64 25344, i64 range(i64 -2147483647, 2147483648) %spec.select76.neg) #11, !srcloc !14
  %47 = extractvalue { i64, i64, i64 } %46, 2
  %48 = trunc i64 %47 to i32
  %49 = sub nsw i32 0, %48
  %50 = and i64 %43, 7
  call void @llvm.lifetime.start.p0(i64 8, ptr nonnull %12) #11
  store i64 0, ptr %12, align 8
  %51 = load i64, ptr %5, align 8, !tbaa !3
  %52 = getelementptr i8, ptr %4, i64 %51
  %53 = getelementptr i8, ptr %52, i64 -8
  %54 = sub nuw nsw i64 8, %50
  %55 = call i32 @mbedtls_ct_memcmp_partial(ptr noundef %53, ptr noundef nonnull %12, i64 noundef 8, i64 noundef %54, i64 noundef 0) #11
  store i32 %55, ptr %10, align 4, !tbaa !11
  %.not68 = icmp eq i32 %55, 0
  %.4 = select i1 %.not68, i32 %49, i32 -25344
  %.not69 = icmp eq i32 %.4, 0
  br i1 %.not69, label %.thread93, label %57

.thread93:                                        ; preds = %38
  %56 = getelementptr inbounds nuw i8, ptr %4, i64 %42
  call void @llvm.memset.p0.i64(ptr align 1 %56, i8 0, i64 %50, i1 false)
  store i64 %42, ptr %5, align 8, !tbaa !3
  call void @llvm.lifetime.end.p0(i64 8, ptr nonnull %12) #11
  br label %.thread90

57:                                               ; preds = %38
  call void @llvm.lifetime.end.p0(i64 8, ptr nonnull %12) #11
  br label %.thread85

.thread85:                                        ; preds = %35, %34, %15, %22, %19, %57
  %.05588 = phi i32 [ %.4, %57 ], [ -24704, %15 ], [ -25344, %22 ], [ %21, %19 ], [ %37, %35 ], [ %30, %34 ]
  %58 = load i64, ptr %5, align 8, !tbaa !3
  call void @llvm.memset.p0.i64(ptr align 1 %4, i8 0, i64 %58, i1 false)
  store i64 0, ptr %5, align 8, !tbaa !3
  br label %.thread90

.thread90:                                        ; preds = %22, %.thread93, %.thread85
  %.05589 = phi i32 [ %.05588, %.thread85 ], [ 0, %.thread93 ], [ 0, %22 ]
  call void @mbedtls_platform_zeroize(ptr noundef nonnull %10, i64 noundef 4) #11
  call void @mbedtls_platform_zeroize(ptr noundef nonnull %9, i64 noundef 8) #11
  br label %.thread81

.thread81:                                        ; preds = %24, %16, %7, %.thread90
  %.0 = phi i32 [ %.05589, %.thread90 ], [ -24832, %7 ], [ -24832, %16 ], [ -24832, %24 ]
  call void @llvm.lifetime.end.p0(i64 4, ptr nonnull %10) #11
  call void @llvm.lifetime.end.p0(i64 8, ptr nonnull %9) #11
  call void @llvm.lifetime.end.p0(i64 8, ptr nonnull %8) #11
  ret i32 %.0
}